; Function Attrs: nounwind uwtable
define ptr @Mvc_CoverRemoveDontCareLits(ptr noundef %0) local_unnamed_addr #1 {
  %2 = tail call ptr @Mvc_CoverDup(ptr noundef %0) #6
  %3 = getelementptr inbounds nuw i8, ptr %2, i64 16
  %.06 = load ptr, ptr %3, align 8, !tbaa !7
  %.not7 = icmp eq ptr %.06, null
  br i1 %.not7, label %._crit_edge, label %.lr.ph

.lr.ph:                                           ; preds = %1, %.lr.ph
  %.08 = phi ptr [ %.0, %.lr.ph ], [ %.06, %1 ]
  tail call void @Mvc_CubeBitRemoveDcs(ptr noundef nonnull %.08) #6
  %.0 = load ptr, ptr %.08, align 8, !tbaa !7
  %.not = icmp eq ptr %.0, null
  br i1 %.not, label %._crit_edge, label %.lr.ph, !llvm.loop !49

._crit_edge:                                      ; preds = %.lr.ph, %1
  ret ptr %2
}